target datalayout = "e-m:e-p270:32:32-p271:32:32-p272:64:64-i64:64-i128:128-f80:128-n8:16:32:64-S128"
target triple = "x86_64-pc-linux-gnu"

%"class.OpenColorIO_v2_5dev::FileRules" = type { ptr, ptr }
%"class.OpenColorIO_v2_5dev::FileRules::Impl" = type { %"class.std::vector" }
%"class.std::vector" = type { %"struct.std::_Vector_base" }
%"struct.std::_Vector_base" = type { %"struct.std::_Vector_base<std::shared_ptr<OpenColorIO_v2_5dev::FileRule>, std::allocator<std::shared_ptr<OpenColorIO_v2_5dev::FileRule>>>::_Vector_impl" }
%"struct.std::_Vector_base<std::shared_ptr<OpenColorIO_v2_5dev::FileRule>, std::allocator<std::shared_ptr<OpenColorIO_v2_5dev::FileRule>>>::_Vector_impl" = type { %"struct.std::_Vector_base<std::shared_ptr<OpenColorIO_v2_5dev::FileRule>, std::allocator<std::shared_ptr<OpenColorIO_v2_5dev::FileRule>>>::_Vector_impl_data" }
%"struct.std::_Vector_base<std::shared_ptr<OpenColorIO_v2_5dev::FileRule>, std::allocator<std::shared_ptr<OpenColorIO_v2_5dev::FileRule>>>::_Vector_impl_data" = type { ptr, ptr, ptr }
%"class.std::__shared_count" = type { ptr }
%"class.std::shared_ptr.0" = type { %"class.std::__shared_ptr.1" }
%"class.std::__shared_ptr.1" = type { ptr, %"class.std::__shared_count" }
%"class.OpenColorIO_v2_5dev::FileRule" = type <{ %"class.OpenColorIO_v2_5dev::CustomKeysContainer", %"class.std::__cxx11::basic_string", %"class.std::__cxx11::basic_string", %"class.std::__cxx11::basic_string", %"class.std::__cxx11::basic_string", %"class.std::__cxx11::basic_string", i32, [4 x i8] }>
%"class.OpenColorIO_v2_5dev::CustomKeysContainer" = type { %"class.std::map" }
%"class.std::map" = type { %"class.std::_Rb_tree" }
%"class.std::_Rb_tree" = type { %"struct.std::_Rb_tree<std::__cxx11::basic_string<char>, std::pair<const std::__cxx11::basic_string<char>, std::__cxx11::basic_string<char>>, std::_Select1st<std::pair<const std::__cxx11::basic_string<char>, std::__cxx11::basic_string<char>>>, std::less<std::__cxx11::basic_string<char>>>::_Rb_tree_impl" }
%"struct.std::_Rb_tree<std::__cxx11::basic_string<char>, std::pair<const std::__cxx11::basic_string<char>, std::__cxx11::basic_string<char>>, std::_Select1st<std::pair<const std::__cxx11::basic_string<char>, std::__cxx11::basic_string<char>>>, std::less<std::__cxx11::basic_string<char>>>::_Rb_tree_impl" = type { [8 x i8], %"struct.std::_Rb_tree_header" }
%"struct.std::_Rb_tree_header" = type { %"struct.std::_Rb_tree_node_base", i64 }
%"struct.std::_Rb_tree_node_base" = type { i32, ptr, ptr, ptr }
%"class.std::__cxx11::basic_string" = type { %"struct.std::__cxx11::basic_string<char>::_Alloc_hider", i64, %union.anon }
%"struct.std::__cxx11::basic_string<char>::_Alloc_hider" = type { ptr }
%union.anon = type { i64, [8 x i8] }

@.str.21 = private unnamed_addr constant [1 x i8] zeroinitializer, align 1

; Function Attrs: mustprogress nounwind uwtable
define available_externally noundef ptr @_ZNKSt7__cxx1112basic_stringIcSt11char_traitsIcESaIcEE7_M_dataEv(ptr noundef nonnull align 8 dereferenceable(32) %0) #3 align 2 {
  %2 = alloca ptr, align 8
  store ptr %0, ptr %2, align 8, !tbaa !68
  %3 = load ptr, ptr %2, align 8
  %4 = getelementptr inbounds nuw %"class.std::__cxx11::basic_string", ptr %3, i32 0, i32 0
  %5 = getelementptr inbounds nuw %"struct.std::__cxx11::basic_string<char>::_Alloc_hider", ptr %4, i32 0, i32 0
  %6 = load ptr, ptr %5, align 8, !tbaa !172
  ret ptr %6
}

; Function Attrs: mustprogress nounwind uwtable
define linkonce_odr hidden noundef ptr @_ZNKSt12__shared_ptrIN19OpenColorIO_v2_5dev8FileRuleELN9__gnu_cxx12_Lock_policyE2EE3getEv(ptr noundef nonnull align 8 dereferenceable(16) %0) #3 comdat align 2 {
  %2 = alloca ptr, align 8
  store ptr %0, ptr %2, align 8, !tbaa !1318
  %3 = load ptr, ptr %2, align 8
  %4 = getelementptr inbounds nuw %"class.std::__shared_ptr.1", ptr %3, i32 0, i32 0
  %5 = load ptr, ptr %4, align 8, !tbaa !1320
  ret ptr %5
}

; Function Attrs: mustprogress nounwind uwtable
define available_externally noundef ptr @_ZNKSt7__cxx1112basic_stringIcSt11char_traitsIcESaIcEE5c_strEv(ptr noundef nonnull align 8 dereferenceable(32) %0) #3 align 2 {
  %2 = alloca ptr, align 8
  store ptr %0, ptr %2, align 8, !tbaa !68
  %3 = load ptr, ptr %2, align 8
  %4 = call noundef ptr @_ZNKSt7__cxx1112basic_stringIcSt11char_traitsIcESaIcEE7_M_dataEv(ptr noundef nonnull align 8 dereferenceable(32) %3)
  ret ptr %4
}

; Function Attrs: mustprogress nounwind uwtable
define linkonce_odr hidden noundef ptr @_ZNKSt19__shared_ptr_accessIN19OpenColorIO_v2_5dev8FileRuleELN9__gnu_cxx12_Lock_policyE2ELb0ELb0EE6_M_getEv(ptr noundef nonnull align 1 dereferenceable(1) %0) #3 comdat align 2 {
  %2 = alloca ptr, align 8
  store ptr %0, ptr %2, align 8, !tbaa !32
  %3 = load ptr, ptr %2, align 8
  %4 = call noundef ptr @_ZNKSt12__shared_ptrIN19OpenColorIO_v2_5dev8FileRuleELN9__gnu_cxx12_Lock_policyE2EE3getEv(ptr noundef nonnull align 8 dereferenceable(16) %3) #21
  ret ptr %4
}

; Function Attrs: mustprogress nounwind uwtable
define linkonce_odr hidden noundef ptr @_ZNK19OpenColorIO_v2_5dev8FileRule8getRegexEv(ptr noundef nonnull align 8 dereferenceable(212) %0) #3 comdat align 2 {
  %2 = alloca ptr, align 8
  %3 = alloca ptr, align 8
  store ptr %0, ptr %3, align 8, !tbaa !34
  %4 = load ptr, ptr %3, align 8
  %5 = getelementptr inbounds nuw %"class.OpenColorIO_v2_5dev::FileRule", ptr %4, i32 0, i32 6
  %6 = load i32, ptr %5, align 8, !tbaa !36
  %7 = icmp ne i32 %6, 2
  br i1 %7, label %8, label %9

8:                                                ; preds = %1
  store ptr @.str.21, ptr %2, align 8
  br label %12

9:                                                ; preds = %1
  %10 = getelementptr inbounds nuw %"class.OpenColorIO_v2_5dev::FileRule", ptr %4, i32 0, i32 5
  %11 = call noundef ptr @_ZNKSt7__cxx1112basic_stringIcSt11char_traitsIcESaIcEE5c_strEv(ptr noundef nonnull align 8 dereferenceable(32) %10) #21
  store ptr %11, ptr %2, align 8
  br label %12

12:                                               ; preds = %9, %8
  %13 = load ptr, ptr %2, align 8
  ret ptr %13
}

; Function Attrs: mustprogress nounwind uwtable
define linkonce_odr hidden noundef ptr @_ZNKSt19__shared_ptr_accessIN19OpenColorIO_v2_5dev8FileRuleELN9__gnu_cxx12_Lock_policyE2ELb0ELb0EEptEv(ptr noundef nonnull align 1 dereferenceable(1) %0) #3 comdat align 2 {
  %2 = alloca ptr, align 8
  store ptr %0, ptr %2, align 8, !tbaa !32
  %3 = load ptr, ptr %2, align 8
  %4 = call noundef ptr @_ZNKSt19__shared_ptr_accessIN19OpenColorIO_v2_5dev8FileRuleELN9__gnu_cxx12_Lock_policyE2ELb0ELb0EE6_M_getEv(ptr noundef nonnull align 1 dereferenceable(1) %3) #21
  ret ptr %4
}

; Function Attrs: mustprogress nounwind uwtable
define linkonce_odr hidden noundef nonnull align 8 dereferenceable(16) ptr @_ZNSt6vectorISt10shared_ptrIN19OpenColorIO_v2_5dev8FileRuleEESaIS3_EEixEm(ptr noundef nonnull align 8 dereferenceable(24) %0, i64 noundef %1) #3 comdat align 2 {
  %3 = alloca ptr, align 8
  %4 = alloca i64, align 8
  store ptr %0, ptr %3, align 8, !tbaa !19
  store i64 %1, ptr %4, align 8, !tbaa !61
  %5 = load ptr, ptr %3, align 8
  %6 = getelementptr inbounds nuw %"struct.std::_Vector_base", ptr %5, i32 0, i32 0
  %7 = getelementptr inbounds nuw %"struct.std::_Vector_base<std::shared_ptr<OpenColorIO_v2_5dev::FileRule>, std::allocator<std::shared_ptr<OpenColorIO_v2_5dev::FileRule>>>::_Vector_impl_data", ptr %6, i32 0, i32 0
  %8 = load ptr, ptr %7, align 8, !tbaa !56
  %9 = load i64, ptr %4, align 8, !tbaa !61
  %10 = getelementptr inbounds nuw %"class.std::shared_ptr.0", ptr %8, i64 %9
  ret ptr %10
}

; Function Attrs: mustprogress uwtable
define noundef ptr @_ZNK19OpenColorIO_v2_5dev9FileRules8getRegexEm(ptr noundef nonnull align 8 dereferenceable(16) %0, i64 noundef %1) #0 align 2 {
  %3 = alloca ptr, align 8
  %4 = alloca i64, align 8
  store ptr %0, ptr %3, align 8, !tbaa !3
  store i64 %1, ptr %4, align 8, !tbaa !61
  %5 = load ptr, ptr %3, align 8
  %6 = getelementptr inbounds nuw %"class.OpenColorIO_v2_5dev::FileRules", ptr %5, i32 0, i32 1
  %7 = load ptr, ptr %6, align 8, !tbaa !10
  %8 = load i64, ptr %4, align 8, !tbaa !61
  call void @_ZNK19OpenColorIO_v2_5dev9FileRules4Impl16validatePositionEmNS1_14DefaultAllowedE(ptr noundef nonnull align 8 dereferenceable(24) %7, i64 noundef %8, i32 noundef 0)
  %9 = getelementptr inbounds nuw %"class.OpenColorIO_v2_5dev::FileRules", ptr %5, i32 0, i32 1
  %10 = load ptr, ptr %9, align 8, !tbaa !10
  %11 = getelementptr inbounds nuw %"class.OpenColorIO_v2_5dev::FileRules::Impl", ptr %10, i32 0, i32 0
  %12 = load i64, ptr %4, align 8, !tbaa !61
  %13 = call noundef nonnull align 8 dereferenceable(16) ptr @_ZNSt6vectorISt10shared_ptrIN19OpenColorIO_v2_5dev8FileRuleEESaIS3_EEixEm(ptr noundef nonnull align 8 dereferenceable(24) %11, i64 noundef %12) #21
  %14 = call noundef ptr @_ZNKSt19__shared_ptr_accessIN19OpenColorIO_v2_5dev8FileRuleELN9__gnu_cxx12_Lock_policyE2ELb0ELb0EEptEv(ptr noundef nonnull align 1 dereferenceable(1) %13) #21
  %15 = call noundef ptr @_ZNK19OpenColorIO_v2_5dev8FileRule8getRegexEv(ptr noundef nonnull align 8 dereferenceable(212) %14) #21
  ret ptr %15
}