; Function Attrs: mustprogress uwtable
define noundef ptr @_ZNK19OpenColorIO_v2_5dev9FileRules8getRegexEm(ptr noundef nonnull readonly align 8 captures(none) dereferenceable(16) %0, i64 noundef %1) local_unnamed_addr #0 align 2 {
  %3 = getelementptr inbounds nuw i8, ptr %0, i64 8
  %4 = load ptr, ptr %3, align 8, !tbaa !6
  tail call void @_ZNK19OpenColorIO_v2_5dev9FileRules4Impl16validatePositionEmNS1_14DefaultAllowedE(ptr noundef nonnull align 8 dereferenceable(24) %4, i64 noundef %1, i32 noundef 0)
  %5 = load ptr, ptr %3, align 8, !tbaa !6
  %6 = load ptr, ptr %5, align 8, !tbaa !11
  %7 = getelementptr inbounds nuw %"class.std::shared_ptr.0", ptr %6, i64 %1
  %8 = load ptr, ptr %7, align 8, !tbaa !36
  %9 = getelementptr inbounds nuw i8, ptr %8, i64 208
  %10 = load i32, ptr %9, align 8, !tbaa !45
  %.not.i = icmp eq i32 %10, 2
  %11 = getelementptr inbounds nuw i8, ptr %8, i64 176
  %12 = load ptr, ptr %11, align 8
  %.0.i = select i1 %.not.i, ptr %12, ptr @.str.21
  ret ptr %.0.i
}